(iboard
Board
p0
(dp1
S'topics'
p2
(lp3
(iboard
Topic
p4
(dp5
S'posts'
p6
(lp7
(iboard
Post
p8
(dp9
S'content'
p10
S'I am sysopping it up and I am a Nick Farr FAN!\n\n'
p11
sS'author'
p12
S'sysop'
p13
sS'time'
p14
ctime
struct_time
p15
((I2014
I7
I11
I16
I34
I52
I4
I192
I1
tp16
(dp17
tp18
Rp19
sbasS'name'
p20
S'Nick Farr Appreciation Society'
p21
sba(iboard
Topic
p22
(dp23
g6
(lp24
sg20
S'L33t h4xx0ring!!1!'
p25
sbasb.